; Function Attrs: mustprogress uwtable
define hidden void @_ZN3opt18maxsmt_solver_base11reset_upperEv(ptr noundef nonnull align 8 dereferenceable(160) %0) local_unnamed_addr #4 align 2 {
  %2 = getelementptr inbounds nuw i8, ptr %0, i64 72
  %3 = getelementptr inbounds nuw i8, ptr %0, i64 104
  %4 = load ptr, ptr @_ZN8rational13g_mpq_managerE, align 8, !tbaa !52
  %5 = getelementptr inbounds nuw i8, ptr %0, i64 76
  %6 = load i8, ptr %5, align 4
  %7 = and i8 %6, 1
  %8 = icmp eq i8 %7, 0
  br i1 %8, label %9, label %14

9:                                                ; preds = %1
  %10 = load i32, ptr %2, align 8, !tbaa !37
  store i32 %10, ptr %3, align 8, !tbaa !37
  %11 = getelementptr inbounds nuw i8, ptr %0, i64 108
  %12 = load i8, ptr %11, align 4
  %13 = and i8 %12, -2
  store i8 %13, ptr %11, align 4
  br label %_ZN11mpq_managerILb1EE3setER3mpzRKS1_.exit.i.i

14:                                               ; preds = %1
  tail call void @_ZN11mpz_managerILb1EE7big_setER3mpzRKS1_(ptr noundef nonnull align 8 dereferenceable(728) %4, ptr noundef nonnull align 8 dereferenceable(32) %3, ptr noundef nonnull align 8 dereferenceable(32) %2)
  br label %_ZN11mpq_managerILb1EE3setER3mpzRKS1_.exit.i.i

_ZN11mpq_managerILb1EE3setER3mpzRKS1_.exit.i.i:   ; preds = %14, %9
  %15 = getelementptr inbounds nuw i8, ptr %0, i64 120
  %16 = getelementptr inbounds nuw i8, ptr %0, i64 88
  %17 = getelementptr inbounds nuw i8, ptr %0, i64 92
  %18 = load i8, ptr %17, align 4
  %19 = and i8 %18, 1
  %20 = icmp eq i8 %19, 0
  br i1 %20, label %21, label %26

21:                                               ; preds = %_ZN11mpq_managerILb1EE3setER3mpzRKS1_.exit.i.i
  %22 = load i32, ptr %16, align 8, !tbaa !37
  store i32 %22, ptr %15, align 8, !tbaa !37
  %23 = getelementptr inbounds nuw i8, ptr %0, i64 124
  %24 = load i8, ptr %23, align 4
  %25 = and i8 %24, -2
  store i8 %25, ptr %23, align 4
  br label %_ZN8rationalaSERKS_.exit

26:                                               ; preds = %_ZN11mpq_managerILb1EE3setER3mpzRKS1_.exit.i.i
  tail call void @_ZN11mpz_managerILb1EE7big_setER3mpzRKS1_(ptr noundef nonnull align 8 dereferenceable(728) %4, ptr noundef nonnull align 8 dereferenceable(16) %15, ptr noundef nonnull align 8 dereferenceable(16) %16)
  br label %_ZN8rationalaSERKS_.exit

_ZN8rationalaSERKS_.exit:                         ; preds = %21, %26
  %27 = getelementptr inbounds nuw i8, ptr %0, i64 32
  %28 = load ptr, ptr %27, align 8, !tbaa !62
  %29 = load ptr, ptr %28, align 8, !tbaa !63
  %30 = icmp eq ptr %29, null
  br i1 %30, label %._crit_edge, label %_ZN6vectorIN3opt4softELb1EjE3endEv.exit

_ZN6vectorIN3opt4softELb1EjE3endEv.exit:          ; preds = %_ZN8rationalaSERKS_.exit
  %31 = getelementptr inbounds i8, ptr %29, i64 -4
  %32 = load i32, ptr %31, align 4, !tbaa !54
  %33 = zext i32 %32 to i64
  %34 = getelementptr inbounds nuw %"struct.opt::soft", ptr %29, i64 %33
  %.not8 = icmp eq i32 %32, 0
  br i1 %.not8, label %._crit_edge, label %.lr.ph

._crit_edge:                                      ; preds = %.lr.ph, %_ZN8rationalaSERKS_.exit, %_ZN6vectorIN3opt4softELb1EjE3endEv.exit
  ret void

.lr.ph:                                           ; preds = %_ZN6vectorIN3opt4softELb1EjE3endEv.exit, %.lr.ph
  %.09 = phi ptr [ %37, %.lr.ph ], [ %29, %_ZN6vectorIN3opt4softELb1EjE3endEv.exit ]
  %35 = getelementptr inbounds nuw i8, ptr %.09, i64 16
  %36 = load ptr, ptr @_ZN8rational13g_mpq_managerE, align 8, !tbaa !52
  tail call void @_ZN11mpq_managerILb1EE3addERK3mpqS3_RS1_(ptr noundef nonnull align 8 dereferenceable(728) %36, ptr noundef nonnull align 8 dereferenceable(32) %3, ptr noundef nonnull align 8 dereferenceable(32) %35, ptr noundef nonnull align 8 dereferenceable(32) %3)
  %37 = getelementptr inbounds nuw i8, ptr %.09, i64 56
  %.not = icmp eq ptr %37, %34
  br i1 %.not, label %._crit_edge, label %.lr.ph
}